; Function Attrs: nounwind uwtable
define internal fastcc noundef ptr @async_gen_unwrap_value(ptr noundef writeonly captures(none) %0, ptr noundef %1) unnamed_addr #2 {
  %3 = icmp eq ptr %1, null
  br i1 %3, label %4, label %16

4:                                                ; preds = %2
  %5 = tail call ptr @PyErr_Occurred() #8
  %.not10 = icmp eq ptr %5, null
  br i1 %.not10, label %6, label %8

6:                                                ; preds = %4
  %7 = load ptr, ptr @PyExc_StopAsyncIteration, align 8, !tbaa !32
  tail call void @PyErr_SetNone(ptr noundef %7) #8
  br label %8

8:                                                ; preds = %6, %4
  %9 = load ptr, ptr @PyExc_StopAsyncIteration, align 8, !tbaa !32
  %10 = tail call i32 @PyErr_ExceptionMatches(ptr noundef %9) #8
  %.not11 = icmp eq i32 %10, 0
  br i1 %.not11, label %11, label %14

11:                                               ; preds = %8
  %12 = load ptr, ptr @PyExc_GeneratorExit, align 8, !tbaa !32
  %13 = tail call i32 @PyErr_ExceptionMatches(ptr noundef %12) #8
  %.not12 = icmp eq i32 %13, 0
  br i1 %.not12, label %.sink.split, label %14

14:                                               ; preds = %11, %8
  %15 = getelementptr inbounds nuw i8, ptr %0, i64 65
  store i8 1, ptr %15, align 1, !tbaa !23
  br label %.sink.split

16:                                               ; preds = %2
  %17 = getelementptr i8, ptr %1, i64 8
  %.val = load ptr, ptr %17, align 8, !tbaa !20
  %.not = icmp eq ptr %.val, @_PyAsyncGenWrappedValue_Type
  br i1 %.not, label %18, label %37

18:                                               ; preds = %16
  %19 = getelementptr inbounds nuw i8, ptr %1, i64 16
  %20 = load ptr, ptr %19, align 8, !tbaa !171
  %21 = icmp eq ptr %20, null
  %22 = load ptr, ptr @PyExc_StopIteration, align 8, !tbaa !32
  br i1 %21, label %23, label %25

23:                                               ; preds = %18
  %24 = tail call ptr @PyObject_CallNoArgs(ptr noundef %22) #8
  br label %27

25:                                               ; preds = %18
  %26 = tail call ptr @PyObject_CallOneArg(ptr noundef %22, ptr noundef nonnull %20) #8
  br label %27

27:                                               ; preds = %25, %23
  %28 = phi ptr [ %24, %23 ], [ %26, %25 ]
  %29 = icmp eq ptr %28, null
  br i1 %29, label %_PyGen_SetStopIterationValue.exit, label %30

30:                                               ; preds = %27
  tail call void @PyErr_SetRaisedException(ptr noundef nonnull %28) #8
  br label %_PyGen_SetStopIterationValue.exit

_PyGen_SetStopIterationValue.exit:                ; preds = %27, %30
  %31 = load i32, ptr %1, align 8, !tbaa !4
  %.not.i = icmp sgt i32 %31, -1
  br i1 %.not.i, label %32, label %.sink.split

32:                                               ; preds = %_PyGen_SetStopIterationValue.exit
  %33 = add nsw i32 %31, -1
  store i32 %33, ptr %1, align 8, !tbaa !4
  %34 = icmp eq i32 %33, 0
  br i1 %34, label %35, label %.sink.split

35:                                               ; preds = %32
  tail call void @_Py_Dealloc(ptr noundef nonnull %1) #8
  br label %.sink.split

.sink.split:                                      ; preds = %35, %32, %_PyGen_SetStopIterationValue.exit, %11, %14
  %36 = getelementptr inbounds nuw i8, ptr %0, i64 66
  store i8 0, ptr %36, align 2, !tbaa !170
  br label %37

37:                                               ; preds = %.sink.split, %16
  %.0 = phi ptr [ %1, %16 ], [ null, %.sink.split ]
  ret ptr %.0
}